target datalayout = "e-m:e-p270:32:32-p271:32:32-p272:64:64-i64:64-i128:128-f80:128-n8:16:32:64-S128"
target triple = "x86_64-pc-linux-gnu"

%struct.llama_sampler = type { ptr, ptr }
%struct.llama_sampler_top_p = type { float, i64 }

; Function Attrs: mustprogress uwtable
define ptr @llama_sampler_init(ptr noundef %0, ptr noundef %1) #0 {
  %3 = alloca ptr, align 8
  %4 = alloca ptr, align 8
  store ptr %0, ptr %3, align 8, !tbaa !3
  store ptr %1, ptr %4, align 8, !tbaa !8
  %5 = call noalias noundef nonnull ptr @_Znwm(i64 noundef 16) #19
  %6 = getelementptr inbounds nuw %struct.llama_sampler, ptr %5, i32 0, i32 0
  %7 = load ptr, ptr %3, align 8, !tbaa !3
  store ptr %7, ptr %6, align 16, !tbaa !9
  %8 = getelementptr inbounds nuw %struct.llama_sampler, ptr %5, i32 0, i32 1
  %9 = load ptr, ptr %4, align 8, !tbaa !8
  store ptr %9, ptr %8, align 8, !tbaa !11
  ret ptr %5
}

; Function Attrs: mustprogress uwtable
define ptr @llama_sampler_init_top_p(float noundef %0, i64 noundef %1) #0 {
  %3 = alloca float, align 4
  %4 = alloca i64, align 8
  store float %0, ptr %3, align 4, !tbaa !36
  store i64 %1, ptr %4, align 8, !tbaa !51
  %5 = call noalias noundef nonnull ptr @_Znwm(i64 noundef 16) #19
  %6 = getelementptr inbounds nuw %struct.llama_sampler_top_p, ptr %5, i32 0, i32 0
  %7 = load float, ptr %3, align 4, !tbaa !36
  store float %7, ptr %6, align 16, !tbaa !96
  %8 = getelementptr inbounds nuw %struct.llama_sampler_top_p, ptr %5, i32 0, i32 1
  %9 = load i64, ptr %4, align 8, !tbaa !51
  store i64 %9, ptr %8, align 8, !tbaa !98
  %10 = call ptr @llama_sampler_init(ptr noundef @_ZL21llama_sampler_top_p_i, ptr noundef %5)
  ret ptr %10
}